; Function Attrs: mustprogress nofree norecurse nosync nounwind willreturn memory(read, inaccessiblemem: none) uwtable
define noundef zeroext i1 @_ZNK4pkpy5BytesneERKS0_(ptr nocapture noundef nonnull readonly align 8 dereferenceable(12) %0, ptr nocapture noundef nonnull readonly align 8 dereferenceable(12) %1) local_unnamed_addr #3 align 2 {
  %3 = getelementptr inbounds i8, ptr %0, i64 8
  %4 = load i32, ptr %3, align 8
  %5 = getelementptr inbounds i8, ptr %1, i64 8
  %6 = load i32, ptr %5, align 8
  %.not.i = icmp eq i32 %4, %6
  br i1 %.not.i, label %.preheader.i, label %_ZNK4pkpy5ByteseqERKS0_.exit

.preheader.i:                                     ; preds = %2
  %7 = icmp sgt i32 %4, 0
  br i1 %7, label %.lr.ph.i, label %_ZNK4pkpy5ByteseqERKS0_.exit

.lr.ph.i:                                         ; preds = %.preheader.i
  %8 = load ptr, ptr %0, align 8
  %9 = load ptr, ptr %1, align 8
  %wide.trip.count.i = zext nneg i32 %4 to i64
  br label %10

10:                                               ; preds = %10, %.lr.ph.i
  %indvars.iv.i = phi i64 [ 0, %.lr.ph.i ], [ %indvars.iv.next.i, %10 ]
  %11 = getelementptr inbounds i8, ptr %8, i64 %indvars.iv.i
  %12 = load i8, ptr %11, align 1
  %13 = getelementptr inbounds i8, ptr %9, i64 %indvars.iv.i
  %14 = load i8, ptr %13, align 1
  %.not8.i.not = icmp ne i8 %12, %14
  %indvars.iv.next.i = add nuw nsw i64 %indvars.iv.i, 1
  %exitcond.not.i = icmp eq i64 %indvars.iv.next.i, %wide.trip.count.i
  %or.cond = select i1 %.not8.i.not, i1 true, i1 %exitcond.not.i
  br i1 %or.cond, label %_ZNK4pkpy5ByteseqERKS0_.exit, label %10, !llvm.loop !4

_ZNK4pkpy5ByteseqERKS0_.exit:                     ; preds = %10, %2, %.preheader.i
  %15 = phi i1 [ true, %2 ], [ false, %.preheader.i ], [ %.not8.i.not, %10 ]
  ret i1 %15
}